; ModuleID = 'bench/linux/original/r8169_firmware.ll'
source_filename = "bench/linux/original/r8169_firmware.ll"
target datalayout = "e-m:e-p270:32:32-p271:32:32-p272:64:64-i64:64-i128:128-f80:128-n8:16:32:64-S128"
target triple = "x86_64-unknown-linux-gnu"

@.str = private unnamed_addr constant [33 x i8] c"Unable to load firmware %s (%d)\0A\00", align 1
@.str.1 = private unnamed_addr constant [23 x i8] c"Invalid action 0x%08x\0A\00", align 1
@.str.2 = private unnamed_addr constant [26 x i8] c"Out of range of firmware\0A\00", align 1

; Function Attrs: fn_ret_thunk_extern nounwind null_pointer_is_valid
define dso_local void @rtl_fw_write_firmware(ptr noundef %0, ptr nocapture noundef readonly %1) local_unnamed_addr #0 align 16 {
  %3 = getelementptr inbounds i8, ptr %1, i64 88
  %4 = getelementptr inbounds i8, ptr %1, i64 8
  %5 = getelementptr inbounds i8, ptr %1, i64 96
  %6 = load i64, ptr %5, align 8
  %7 = icmp eq i64 %6, 0
  br i1 %7, label %.loopexit, label %8

8:                                                ; preds = %2
  %9 = load ptr, ptr %4, align 8
  %10 = load ptr, ptr %1, align 8
  %11 = getelementptr inbounds i8, ptr %1, i64 16
  %12 = getelementptr inbounds i8, ptr %1, i64 24
  br label %13

13:                                               ; preds = %66, %8
  %14 = phi ptr [ %10, %8 ], [ %71, %66 ]
  %15 = phi i64 [ 0, %8 ], [ %72, %66 ]
  %16 = phi i32 [ 0, %8 ], [ %69, %66 ]
  %17 = phi i32 [ 0, %8 ], [ %68, %66 ]
  %18 = phi ptr [ %9, %8 ], [ %67, %66 ]
  %19 = load ptr, ptr %3, align 8
  %20 = getelementptr i32, ptr %19, i64 %15
  %21 = load i32, ptr %20, align 4
  %22 = and i32 %21, 65535
  %23 = lshr i32 %21, 16
  %24 = and i32 %23, 4095
  %25 = lshr i32 %21, 28
  switch i32 %25, label %66 [
    i32 0, label %26
    i32 1, label %29
    i32 2, label %31
    i32 3, label %33
    i32 4, label %37
    i32 7, label %45
    i32 8, label %46
    i32 9, label %47
    i32 10, label %51
    i32 11, label %56
    i32 12, label %61
    i32 13, label %62
    i32 14, label %65
  ]

26:                                               ; preds = %13
  %27 = tail call i32 %18(ptr noundef %0, i32 noundef %24) #3
  %28 = add i32 %16, 1
  br label %66

29:                                               ; preds = %13
  %30 = or i32 %22, %17
  br label %66

31:                                               ; preds = %13
  %32 = and i32 %22, %17
  br label %66

33:                                               ; preds = %13
  %34 = add nuw nsw i32 %24, 1
  %35 = zext nneg i32 %34 to i64
  %36 = sub i64 %15, %35
  br label %66

37:                                               ; preds = %13
  %38 = icmp eq i32 %22, 0
  br i1 %38, label %42, label %39

39:                                               ; preds = %37
  %40 = load ptr, ptr %11, align 8
  %41 = load ptr, ptr %12, align 8
  br label %66

42:                                               ; preds = %37
  %43 = load ptr, ptr %1, align 8
  %44 = load ptr, ptr %4, align 8
  br label %66

45:                                               ; preds = %13
  br label %66

46:                                               ; preds = %13
  tail call void %14(ptr noundef %0, i32 noundef %24, i32 noundef %22) #3
  br label %66

47:                                               ; preds = %13
  %48 = icmp eq i32 %16, %22
  %49 = zext i1 %48 to i64
  %50 = add nuw i64 %15, %49
  br label %66

51:                                               ; preds = %13
  %52 = icmp eq i32 %17, %22
  br i1 %52, label %53, label %66

53:                                               ; preds = %51
  %54 = zext nneg i32 %24 to i64
  %55 = add i64 %15, %54
  br label %66

56:                                               ; preds = %13
  %57 = icmp eq i32 %17, %22
  br i1 %57, label %66, label %58

58:                                               ; preds = %56
  %59 = zext nneg i32 %24 to i64
  %60 = add i64 %15, %59
  br label %66

61:                                               ; preds = %13
  tail call void %14(ptr noundef %0, i32 noundef %24, i32 noundef %17) #3
  br label %66

62:                                               ; preds = %13
  %63 = zext nneg i32 %24 to i64
  %64 = add i64 %15, %63
  br label %66

65:                                               ; preds = %13
  tail call void @msleep(i32 noundef %22) #3
  br label %66

66:                                               ; preds = %65, %62, %61, %58, %56, %53, %51, %47, %46, %45, %42, %39, %33, %31, %29, %26, %13
  %67 = phi ptr [ %18, %13 ], [ %18, %65 ], [ %18, %62 ], [ %18, %61 ], [ %18, %58 ], [ %18, %56 ], [ %18, %53 ], [ %18, %51 ], [ %18, %46 ], [ %18, %45 ], [ %41, %39 ], [ %44, %42 ], [ %18, %33 ], [ %18, %31 ], [ %18, %29 ], [ %18, %26 ], [ %18, %47 ]
  %68 = phi i32 [ %17, %13 ], [ %17, %65 ], [ %17, %62 ], [ %17, %61 ], [ %17, %58 ], [ %17, %56 ], [ %17, %53 ], [ %17, %51 ], [ %17, %46 ], [ %17, %45 ], [ %17, %39 ], [ %17, %42 ], [ %17, %33 ], [ %32, %31 ], [ %30, %29 ], [ %27, %26 ], [ %17, %47 ]
  %69 = phi i32 [ %16, %13 ], [ %16, %65 ], [ %16, %62 ], [ %16, %61 ], [ %16, %58 ], [ %16, %56 ], [ %16, %53 ], [ %16, %51 ], [ %16, %46 ], [ 0, %45 ], [ %16, %39 ], [ %16, %42 ], [ %16, %33 ], [ %16, %31 ], [ %16, %29 ], [ %28, %26 ], [ %16, %47 ]
  %70 = phi i64 [ %15, %13 ], [ %15, %65 ], [ %64, %62 ], [ %15, %61 ], [ %60, %58 ], [ %15, %56 ], [ %55, %53 ], [ %15, %51 ], [ %15, %46 ], [ %15, %45 ], [ %15, %39 ], [ %15, %42 ], [ %36, %33 ], [ %15, %31 ], [ %15, %29 ], [ %15, %26 ], [ %50, %47 ]
  %71 = phi ptr [ %14, %13 ], [ %14, %65 ], [ %14, %62 ], [ %14, %61 ], [ %14, %58 ], [ %14, %56 ], [ %14, %53 ], [ %14, %51 ], [ %14, %46 ], [ %14, %45 ], [ %40, %39 ], [ %43, %42 ], [ %14, %33 ], [ %14, %31 ], [ %14, %29 ], [ %14, %26 ], [ %14, %47 ]
  %72 = add i64 %70, 1
  %73 = load i64, ptr %5, align 8
  %74 = icmp ult i64 %72, %73
  br i1 %74, label %13, label %.loopexit, !llvm.loop !5

.loopexit:                                        ; preds = %66, %2
  ret void
}

; Function Attrs: null_pointer_is_valid
declare dso_local void @msleep(i32 noundef) local_unnamed_addr #1

; Function Attrs: fn_ret_thunk_extern nounwind null_pointer_is_valid
define dso_local void @rtl_fw_release_firmware(ptr nocapture noundef readonly %0) local_unnamed_addr #0 align 16 {
  %2 = getelementptr inbounds i8, ptr %0, i64 32
  %3 = load ptr, ptr %2, align 8
  tail call void @release_firmware(ptr noundef %3) #3
  ret void
}

; Function Attrs: null_pointer_is_valid
declare dso_local void @release_firmware(ptr noundef) local_unnamed_addr #1

; Function Attrs: fn_ret_thunk_extern nounwind null_pointer_is_valid
define dso_local noundef i32 @rtl_fw_request_firmware(ptr noundef %0) local_unnamed_addr #0 align 16 {
  %2 = getelementptr inbounds i8, ptr %0, i64 32
  %3 = getelementptr inbounds i8, ptr %0, i64 40
  %4 = load ptr, ptr %3, align 8
  %5 = getelementptr inbounds i8, ptr %0, i64 48
  %6 = load ptr, ptr %5, align 8
  %7 = tail call i32 @request_firmware(ptr noundef %2, ptr noundef %4, ptr noundef %6) #3
  %8 = icmp slt i32 %7, 0
  br i1 %8, label %89, label %9

9:                                                ; preds = %1
  %10 = load ptr, ptr %2, align 8
  %11 = getelementptr inbounds i8, ptr %10, i64 8
  %12 = load ptr, ptr %11, align 8
  %13 = getelementptr inbounds i8, ptr %0, i64 88
  %14 = load i64, ptr %10, align 8
  %15 = icmp ult i64 %14, 4
  br i1 %15, label %.critedge, label %16

16:                                               ; preds = %9
  %17 = load i32, ptr %12, align 1
  %18 = icmp eq i32 %17, 0
  br i1 %18, label %19, label %48

19:                                               ; preds = %16
  %20 = icmp ult i64 %14, 45
  br i1 %20, label %.critedge, label %.preheader10

.preheader10:                                     ; preds = %19, %.preheader10
  %21 = phi i8 [ %25, %.preheader10 ], [ 0, %19 ]
  %22 = phi i64 [ %26, %.preheader10 ], [ 0, %19 ]
  %23 = getelementptr i8, ptr %12, i64 %22
  %24 = load i8, ptr %23, align 1
  %25 = add i8 %24, %21
  %26 = add nuw i64 %22, 1
  %27 = icmp eq i64 %26, %14
  br i1 %27, label %28, label %.preheader10, !llvm.loop !8

28:                                               ; preds = %.preheader10
  %29 = icmp eq i8 %25, 0
  br i1 %29, label %30, label %.critedge

30:                                               ; preds = %28
  %31 = getelementptr inbounds i8, ptr %12, i64 36
  %32 = load i32, ptr %31, align 1
  %33 = zext i32 %32 to i64
  %34 = icmp ult i64 %14, %33
  br i1 %34, label %.critedge, label %35

35:                                               ; preds = %30
  %36 = getelementptr inbounds i8, ptr %12, i64 40
  %37 = load i32, ptr %36, align 1
  %38 = zext i32 %37 to i64
  %39 = sub i64 %14, %33
  %40 = lshr i64 %39, 2
  %41 = icmp ult i64 %40, %38
  br i1 %41, label %.critedge, label %42

42:                                               ; preds = %35
  %43 = getelementptr inbounds i8, ptr %0, i64 56
  %44 = getelementptr inbounds i8, ptr %12, i64 4
  %45 = tail call i64 @strscpy(ptr noundef %43, ptr noundef %44, i64 noundef 32) #3
  %46 = load ptr, ptr %11, align 8
  %47 = getelementptr i8, ptr %46, i64 %33
  store ptr %47, ptr %13, align 8
  br label %58

48:                                               ; preds = %16
  %49 = and i64 %14, 3
  %50 = icmp eq i64 %49, 0
  br i1 %50, label %51, label %.critedge

51:                                               ; preds = %48
  %52 = getelementptr inbounds i8, ptr %0, i64 56
  %53 = load ptr, ptr %3, align 8
  %54 = tail call i64 @strscpy(ptr noundef %52, ptr noundef %53, i64 noundef 32) #3
  %55 = load ptr, ptr %11, align 8
  store ptr %55, ptr %13, align 8
  %56 = load i64, ptr %10, align 8
  %57 = lshr i64 %56, 2
  br label %58

58:                                               ; preds = %51, %42
  %59 = phi ptr [ %55, %51 ], [ %47, %42 ]
  %60 = phi i64 [ %57, %51 ], [ %38, %42 ]
  %61 = getelementptr inbounds i8, ptr %0, i64 96
  store i64 %60, ptr %61, align 8
  %62 = icmp eq i64 %60, 0
  br i1 %62, label %.loopexit, label %.preheader

.preheader:                                       ; preds = %58, %84
  %63 = phi i64 [ %85, %84 ], [ 0, %58 ]
  %64 = getelementptr i32, ptr %59, i64 %63
  %65 = load i32, ptr %64, align 4
  %66 = lshr i32 %65, 16
  %67 = and i32 %66, 4095
  %68 = lshr i32 %65, 28
  switch i32 %68, label %.thread9 [
    i32 0, label %84
    i32 1, label %84
    i32 2, label %84
    i32 7, label %84
    i32 8, label %84
    i32 12, label %84
    i32 14, label %84
    i32 4, label %69
    i32 3, label %72
    i32 9, label %75
    i32 10, label %78
    i32 11, label %78
    i32 13, label %78
  ]

69:                                               ; preds = %.preheader
  %70 = and i32 %65, 65534
  %71 = icmp eq i32 %70, 0
  br i1 %71, label %84, label %86

72:                                               ; preds = %.preheader
  %73 = zext nneg i32 %67 to i64
  %74 = icmp ult i64 %63, %73
  br i1 %74, label %86, label %84

75:                                               ; preds = %.preheader
  %76 = add i64 %63, 2
  %77 = icmp ult i64 %76, %60
  br i1 %77, label %84, label %86

78:                                               ; preds = %.preheader, %.preheader, %.preheader
  %79 = add nuw i64 %63, 1
  %80 = zext nneg i32 %67 to i64
  %81 = add i64 %79, %80
  %82 = icmp ult i64 %81, %60
  br i1 %82, label %84, label %86

.thread9:                                         ; preds = %.preheader
  %83 = load ptr, ptr %5, align 8
  tail call void (ptr, ptr, ...) @_dev_err(ptr noundef %83, ptr noundef nonnull @.str.1, i32 noundef %65) #4
  br label %.critedge

84:                                               ; preds = %78, %75, %72, %69, %.preheader, %.preheader, %.preheader, %.preheader, %.preheader, %.preheader, %.preheader
  %85 = add nuw i64 %63, 1
  %.not = icmp ult i64 %85, %60
  br i1 %.not, label %.preheader, label %.loopexit, !llvm.loop !9

86:                                               ; preds = %69, %72, %75, %78
  %87 = load ptr, ptr %5, align 8
  tail call void (ptr, ptr, ...) @_dev_err(ptr noundef %87, ptr noundef nonnull @.str.2) #4
  br label %.critedge

.critedge:                                        ; preds = %.thread9, %86, %48, %35, %30, %28, %19, %9
  %88 = load ptr, ptr %2, align 8
  tail call void @release_firmware(ptr noundef %88) #3
  br label %89

89:                                               ; preds = %.critedge, %1
  %90 = phi i32 [ %7, %1 ], [ -22, %.critedge ]
  %91 = load ptr, ptr %5, align 8
  %92 = load ptr, ptr %3, align 8
  tail call void (ptr, ptr, ...) @_dev_err(ptr noundef %91, ptr noundef nonnull @.str, ptr noundef %92, i32 noundef %90) #4
  br label %.loopexit

.loopexit:                                        ; preds = %84, %58, %89
  %93 = phi i32 [ %90, %89 ], [ 0, %58 ], [ 0, %84 ]
  ret i32 %93
}

; Function Attrs: null_pointer_is_valid
declare dso_local i32 @request_firmware(ptr noundef, ptr noundef, ptr noundef) local_unnamed_addr #1

; Function Attrs: cold null_pointer_is_valid
declare dso_local void @_dev_err(ptr noundef, ptr noundef, ...) local_unnamed_addr #2

; Function Attrs: null_pointer_is_valid
declare dso_local i64 @strscpy(ptr noundef, ptr noundef, i64 noundef) local_unnamed_addr #1


!llvm.module.flags = !{!0, !1, !2, !3, !4}

!0 = !{i32 1, !"wchar_size", i32 2}
!1 = !{i32 8, !"cf-protection-branch", i32 1}
!2 = !{i32 4, !"function_return_thunk_extern", i32 1}
!3 = !{i32 4, !"indirect_branch_cs_prefix", i32 1}
!4 = !{i32 4, !"SkipRaxSetup", i32 1}
!5 = distinct !{!5, !6, !7}
!6 = !{!"llvm.loop.mustprogress"}
!7 = !{!"llvm.loop.unroll.disable"}
!8 = distinct !{!8, !6, !7}
!9 = distinct !{!9, !6, !7}
